target datalayout = "e-m:e-p270:32:32-p271:32:32-p272:64:64-i64:64-i128:128-f80:128-n8:16:32:64-S128"
target triple = "x86_64-pc-linux-gnu"

%"struct.logos::LogosParameters" = type { float, float, float, float, float, i32, i32 }
%"class.logos::Logos" = type { %"class.std::vector", %"class.std::vector", %"struct.logos::LogosParameters", float, float, i32, %"class.std::vector.0" }
%"class.std::vector" = type { %"struct.std::_Vector_base" }
%"struct.std::_Vector_base" = type { %"struct.std::_Vector_base<logos::PointPair *, std::allocator<logos::PointPair *>>::_Vector_impl" }
%"struct.std::_Vector_base<logos::PointPair *, std::allocator<logos::PointPair *>>::_Vector_impl" = type { %"struct.std::_Vector_base<logos::PointPair *, std::allocator<logos::PointPair *>>::_Vector_impl_data" }
%"struct.std::_Vector_base<logos::PointPair *, std::allocator<logos::PointPair *>>::_Vector_impl_data" = type { ptr, ptr, ptr }
%"class.std::vector.0" = type { %"struct.std::_Vector_base.1" }
%"struct.std::_Vector_base.1" = type { %"struct.std::_Vector_base<int, std::allocator<int>>::_Vector_impl" }
%"struct.std::_Vector_base<int, std::allocator<int>>::_Vector_impl" = type { %"struct.std::_Vector_base<int, std::allocator<int>>::_Vector_impl_data" }
%"struct.std::_Vector_base<int, std::allocator<int>>::_Vector_impl_data" = type { ptr, ptr, ptr }
%"class.logos::Match" = type { ptr, ptr, float, float, float, float, float, float, float, float, float, float }

; Function Attrs: inlinehint mustprogress nounwind uwtable
define linkonce_odr hidden noundef float @_ZNK5logos5Logos18getInterScaleLimitEv(ptr noundef nonnull align 8 dereferenceable(112) %0) #3 comdat align 2 {
  %2 = alloca ptr, align 8
  store ptr %0, ptr %2, align 8, !tbaa !3
  %3 = load ptr, ptr %2, align 8
  %4 = getelementptr inbounds nuw %"class.logos::Logos", ptr %3, i32 0, i32 2
  %5 = getelementptr inbounds nuw %"struct.logos::LogosParameters", ptr %4, i32 0, i32 3
  %6 = load float, ptr %5, align 4, !tbaa !106
  ret float %6
}

; Function Attrs: inlinehint mustprogress nounwind uwtable
define linkonce_odr hidden noundef float @_ZNK5logos5Match13getInterScaleEv(ptr noundef nonnull align 8 dereferenceable(56) %0) #3 comdat align 2 {
  %2 = alloca ptr, align 8
  store ptr %0, ptr %2, align 8, !tbaa !90
  %3 = load ptr, ptr %2, align 8
  %4 = getelementptr inbounds nuw %"class.logos::Match", ptr %3, i32 0, i32 5
  %5 = load float, ptr %4, align 4, !tbaa !105
  ret float %5
}

; Function Attrs: inlinehint mustprogress nounwind uwtable
define linkonce_odr hidden noundef float @_ZNK5logos5Logos16getInterOriLimitEv(ptr noundef nonnull align 8 dereferenceable(112) %0) #3 comdat align 2 {
  %2 = alloca ptr, align 8
  store ptr %0, ptr %2, align 8, !tbaa !3
  %3 = load ptr, ptr %2, align 8
  %4 = getelementptr inbounds nuw %"class.logos::Logos", ptr %3, i32 0, i32 2
  %5 = getelementptr inbounds nuw %"struct.logos::LogosParameters", ptr %4, i32 0, i32 2
  %6 = load float, ptr %5, align 8, !tbaa !104
  ret float %6
}

; Function Attrs: inlinehint mustprogress nounwind uwtable
define linkonce_odr hidden noundef float @_ZNK5logos5Match19getInterOrientationEv(ptr noundef nonnull align 8 dereferenceable(56) %0) #3 comdat align 2 {
  %2 = alloca ptr, align 8
  store ptr %0, ptr %2, align 8, !tbaa !90
  %3 = load ptr, ptr %2, align 8
  %4 = getelementptr inbounds nuw %"class.logos::Match", ptr %3, i32 0, i32 4
  %5 = load float, ptr %4, align 8, !tbaa !103
  ret float %5
}

; Function Attrs: inlinehint mustprogress nounwind uwtable
define linkonce_odr hidden noundef float @_ZNK5logos5Logos18getIntraScaleLimitEv(ptr noundef nonnull align 8 dereferenceable(112) %0) #3 comdat align 2 {
  %2 = alloca ptr, align 8
  store ptr %0, ptr %2, align 8, !tbaa !3
  %3 = load ptr, ptr %2, align 8
  %4 = getelementptr inbounds nuw %"class.logos::Logos", ptr %3, i32 0, i32 2
  %5 = getelementptr inbounds nuw %"struct.logos::LogosParameters", ptr %4, i32 0, i32 1
  %6 = load float, ptr %5, align 4, !tbaa !102
  ret float %6
}

; Function Attrs: inlinehint mustprogress nounwind uwtable
define linkonce_odr hidden noundef float @_ZNK5logos5Match11getRelScaleEv(ptr noundef nonnull align 8 dereferenceable(56) %0) #3 comdat align 2 {
  %2 = alloca ptr, align 8
  store ptr %0, ptr %2, align 8, !tbaa !90
  %3 = load ptr, ptr %2, align 8
  %4 = getelementptr inbounds nuw %"class.logos::Match", ptr %3, i32 0, i32 3
  %5 = load float, ptr %4, align 4, !tbaa !101
  ret float %5
}

; Function Attrs: inlinehint mustprogress nounwind uwtable
define linkonce_odr hidden noundef float @_ZNK5logos5Logos16getIntraOriLimitEv(ptr noundef nonnull align 8 dereferenceable(112) %0) #3 comdat align 2 {
  %2 = alloca ptr, align 8
  store ptr %0, ptr %2, align 8, !tbaa !3
  %3 = load ptr, ptr %2, align 8
  %4 = getelementptr inbounds nuw %"class.logos::Logos", ptr %3, i32 0, i32 2
  %5 = getelementptr inbounds nuw %"struct.logos::LogosParameters", ptr %4, i32 0, i32 0
  %6 = load float, ptr %5, align 8, !tbaa !100
  ret float %6
}

; Function Attrs: inlinehint mustprogress nounwind uwtable
define linkonce_odr hidden noundef float @_ZNK5logos5Match17getRelOrientationEv(ptr noundef nonnull align 8 dereferenceable(56) %0) #3 comdat align 2 {
  %2 = alloca ptr, align 8
  store ptr %0, ptr %2, align 8, !tbaa !90
  %3 = load ptr, ptr %2, align 8
  %4 = getelementptr inbounds nuw %"class.logos::Match", ptr %3, i32 0, i32 2
  %5 = load float, ptr %4, align 8, !tbaa !98
  ret float %5
}

; Function Attrs: mustprogress uwtable
define hidden noundef zeroext i1 @_ZNK5logos5Logos13evaluateMatchERKNS_5MatchE(ptr noundef nonnull align 8 dereferenceable(112) %0, ptr noundef nonnull align 8 dereferenceable(56) %1) #0 align 2 {
  %3 = alloca ptr, align 8
  %4 = alloca ptr, align 8
  store ptr %0, ptr %3, align 8, !tbaa !3
  store ptr %1, ptr %4, align 8, !tbaa !90
  %5 = load ptr, ptr %3, align 8
  %6 = load ptr, ptr %4, align 8, !tbaa !90
  %7 = call noundef float @_ZNK5logos5Match17getRelOrientationEv(ptr noundef nonnull align 8 dereferenceable(56) %6)
  %8 = call noundef float @_ZNK5logos5Logos16getIntraOriLimitEv(ptr noundef nonnull align 8 dereferenceable(112) %5)
  %9 = fcmp olt float %7, %8
  br i1 %9, label %10, label %25

10:                                               ; preds = %2
  %11 = load ptr, ptr %4, align 8, !tbaa !90
  %12 = call noundef float @_ZNK5logos5Match11getRelScaleEv(ptr noundef nonnull align 8 dereferenceable(56) %11)
  %13 = call noundef float @_ZNK5logos5Logos18getIntraScaleLimitEv(ptr noundef nonnull align 8 dereferenceable(112) %5)
  %14 = fcmp olt float %12, %13
  br i1 %14, label %15, label %25

15:                                               ; preds = %10
  %16 = load ptr, ptr %4, align 8, !tbaa !90
  %17 = call noundef float @_ZNK5logos5Match19getInterOrientationEv(ptr noundef nonnull align 8 dereferenceable(56) %16)
  %18 = call noundef float @_ZNK5logos5Logos16getInterOriLimitEv(ptr noundef nonnull align 8 dereferenceable(112) %5)
  %19 = fcmp olt float %17, %18
  br i1 %19, label %20, label %25

20:                                               ; preds = %15
  %21 = load ptr, ptr %4, align 8, !tbaa !90
  %22 = call noundef float @_ZNK5logos5Match13getInterScaleEv(ptr noundef nonnull align 8 dereferenceable(56) %21)
  %23 = call noundef float @_ZNK5logos5Logos18getInterScaleLimitEv(ptr noundef nonnull align 8 dereferenceable(112) %5)
  %24 = fcmp olt float %22, %23
  br label %25

25:                                               ; preds = %20, %15, %10, %2
  %26 = phi i1 [ false, %15 ], [ false, %10 ], [ false, %2 ], [ %24, %20 ]
  ret i1 %26
}