; Function Attrs: mustprogress nofree norecurse nosync nounwind willreturn memory(argmem: read) uwtable
define hidden noundef zeroext i1 @_ZNK5logos5Logos13evaluateMatchERKNS_5MatchE(ptr noundef nonnull readonly align 8 captures(none) dereferenceable(112) %0, ptr noundef nonnull readonly align 8 captures(none) dereferenceable(56) %1) local_unnamed_addr #6 align 2 {
  %3 = getelementptr inbounds nuw i8, ptr %1, i64 16
  %4 = load float, ptr %3, align 8, !tbaa !62
  %5 = getelementptr inbounds nuw i8, ptr %0, i64 48
  %6 = load float, ptr %5, align 8, !tbaa !64
  %7 = fcmp olt float %4, %6
  br i1 %7, label %8, label %26

8:                                                ; preds = %2
  %9 = getelementptr inbounds nuw i8, ptr %1, i64 20
  %10 = load float, ptr %9, align 4, !tbaa !65
  %11 = getelementptr inbounds nuw i8, ptr %0, i64 52
  %12 = load float, ptr %11, align 4, !tbaa !66
  %13 = fcmp olt float %10, %12
  br i1 %13, label %14, label %26

14:                                               ; preds = %8
  %15 = getelementptr inbounds nuw i8, ptr %1, i64 24
  %16 = load float, ptr %15, align 8, !tbaa !67
  %17 = getelementptr inbounds nuw i8, ptr %0, i64 56
  %18 = load float, ptr %17, align 8, !tbaa !68
  %19 = fcmp olt float %16, %18
  br i1 %19, label %20, label %26

20:                                               ; preds = %14
  %21 = getelementptr inbounds nuw i8, ptr %1, i64 28
  %22 = load float, ptr %21, align 4, !tbaa !69
  %23 = getelementptr inbounds nuw i8, ptr %0, i64 60
  %24 = load float, ptr %23, align 4, !tbaa !70
  %25 = fcmp olt float %22, %24
  br label %26

26:                                               ; preds = %20, %14, %8, %2
  %27 = phi i1 [ false, %14 ], [ false, %8 ], [ false, %2 ], [ %25, %20 ]
  ret i1 %27
}